; Function Attrs: mustprogress uwtable
define internal noundef i64 @_ZNK5faiss12_GLOBAL__N_114IVFFlatScannerILNS_10MetricTypeE0ENS_4CMinIflEELb0EE10scan_codesEmPKhPKlPfPlm(ptr noundef nonnull readonly align 8 captures(none) dereferenceable(56) %0, i64 noundef %1, ptr noundef %2, ptr noundef readonly captures(none) %3, ptr noundef captures(none) %4, ptr noundef captures(none) %5, i64 noundef %6) unnamed_addr #3 align 2 {
  %.not = icmp eq i64 %1, 0
  br i1 %.not, label %._crit_edge, label %.lr.ph

.lr.ph:                                           ; preds = %7
  %8 = getelementptr inbounds nuw i8, ptr %0, i64 40
  %9 = getelementptr inbounds nuw i8, ptr %0, i64 48
  %10 = getelementptr inbounds nuw i8, ptr %0, i64 17
  %11 = getelementptr inbounds nuw i8, ptr %0, i64 8
  %12 = getelementptr inbounds i8, ptr %4, i64 -4
  %13 = getelementptr inbounds i8, ptr %5, i64 -8
  %14 = icmp ult i64 %6, 2
  %.phi.trans.insert.i = getelementptr inbounds nuw float, ptr %12, i64 %6
  br i1 %14, label %.lr.ph.split.us, label %.lr.ph.split

.lr.ph.split.us:                                  ; preds = %.lr.ph, %34
  %.022.us = phi i64 [ %.1.us, %34 ], [ 0, %.lr.ph ]
  %.01920.us = phi i64 [ %35, %34 ], [ 0, %.lr.ph ]
  %15 = load i64, ptr %8, align 8, !tbaa !138
  %16 = mul i64 %15, %.01920.us
  %17 = getelementptr inbounds nuw float, ptr %2, i64 %16
  %18 = load ptr, ptr %9, align 8, !tbaa !136
  %19 = tail call noundef float @_ZN5faiss18fvec_inner_productEPKfS1_m(ptr noundef %18, ptr noundef %17, i64 noundef %15)
  %20 = load float, ptr %4, align 4, !tbaa !112
  %21 = fcmp olt float %20, %19
  br i1 %21, label %22, label %34

22:                                               ; preds = %.lr.ph.split.us
  %23 = load i8, ptr %10, align 1, !tbaa !59, !range !42, !noundef !43
  %24 = trunc nuw i8 %23 to i1
  br i1 %24, label %28, label %25

25:                                               ; preds = %22
  %26 = getelementptr inbounds nuw i64, ptr %3, i64 %.01920.us
  %27 = load i64, ptr %26, align 8, !tbaa !36
  br label %_ZN5faiss16heap_replace_topINS_4CMinIflEEEEvmPNT_1TEPNS3_2TIES4_S6_.exit.us

28:                                               ; preds = %22
  %29 = load i64, ptr %11, align 8, !tbaa !56
  %30 = shl i64 %29, 32
  %31 = or i64 %30, %.01920.us
  br label %_ZN5faiss16heap_replace_topINS_4CMinIflEEEEvmPNT_1TEPNS3_2TIES4_S6_.exit.us

_ZN5faiss16heap_replace_topINS_4CMinIflEEEEvmPNT_1TEPNS3_2TIES4_S6_.exit.us: ; preds = %28, %25
  %32 = phi i64 [ %31, %28 ], [ %27, %25 ]
  store float %19, ptr %4, align 4, !tbaa !112
  store i64 %32, ptr %5, align 8, !tbaa !36
  %33 = add i64 %.022.us, 1
  br label %34

34:                                               ; preds = %_ZN5faiss16heap_replace_topINS_4CMinIflEEEEvmPNT_1TEPNS3_2TIES4_S6_.exit.us, %.lr.ph.split.us
  %.1.us = phi i64 [ %33, %_ZN5faiss16heap_replace_topINS_4CMinIflEEEEvmPNT_1TEPNS3_2TIES4_S6_.exit.us ], [ %.022.us, %.lr.ph.split.us ]
  %35 = add nuw i64 %.01920.us, 1
  %exitcond24.not = icmp eq i64 %35, %1
  br i1 %exitcond24.not, label %._crit_edge, label %.lr.ph.split.us, !llvm.loop !139

._crit_edge:                                      ; preds = %91, %34, %7
  %.0.lcssa = phi i64 [ 0, %7 ], [ %.1.us, %34 ], [ %.1, %91 ]
  ret i64 %.0.lcssa

.lr.ph.split:                                     ; preds = %.lr.ph, %91
  %.022 = phi i64 [ %.1, %91 ], [ 0, %.lr.ph ]
  %.01920 = phi i64 [ %92, %91 ], [ 0, %.lr.ph ]
  %36 = load i64, ptr %8, align 8, !tbaa !138
  %37 = mul i64 %36, %.01920
  %38 = getelementptr inbounds nuw float, ptr %2, i64 %37
  %39 = load ptr, ptr %9, align 8, !tbaa !136
  %40 = tail call noundef float @_ZN5faiss18fvec_inner_productEPKfS1_m(ptr noundef %39, ptr noundef %38, i64 noundef %36)
  %41 = load float, ptr %4, align 4, !tbaa !112
  %42 = fcmp olt float %41, %40
  br i1 %42, label %43, label %91

43:                                               ; preds = %.lr.ph.split
  %44 = load i8, ptr %10, align 1, !tbaa !59, !range !42, !noundef !43
  %45 = trunc nuw i8 %44 to i1
  br i1 %45, label %46, label %50

46:                                               ; preds = %43
  %47 = load i64, ptr %11, align 8, !tbaa !56
  %48 = shl i64 %47, 32
  %49 = or i64 %48, %.01920
  br label %.lr.ph.preheader.i

50:                                               ; preds = %43
  %51 = getelementptr inbounds nuw i64, ptr %3, i64 %.01920
  %52 = load i64, ptr %51, align 8, !tbaa !36
  br label %.lr.ph.preheader.i

.lr.ph.preheader.i:                               ; preds = %50, %46
  %53 = phi i64 [ %49, %46 ], [ %52, %50 ]
  br label %.lr.ph.i

.lr.ph.i:                                         ; preds = %82, %.lr.ph.preheader.i
  %54 = phi i64 [ %86, %82 ], [ 3, %.lr.ph.preheader.i ]
  %55 = phi i64 [ %85, %82 ], [ 2, %.lr.ph.preheader.i ]
  %.056.i = phi i64 [ %.1.i, %82 ], [ 1, %.lr.ph.preheader.i ]
  %56 = icmp eq i64 %55, %6
  br i1 %56, label %.lr.ph._ZN5faiss4CMinIflE4cmp2Effll.exit.thread_crit_edge.i, label %57

.lr.ph._ZN5faiss4CMinIflE4cmp2Effll.exit.thread_crit_edge.i: ; preds = %.lr.ph.i
  %.pre.i = load float, ptr %.phi.trans.insert.i, align 4, !tbaa !112
  br label %_ZN5faiss4CMinIflE4cmp2Effll.exit.thread.i

57:                                               ; preds = %.lr.ph.i
  %58 = getelementptr inbounds nuw float, ptr %12, i64 %55
  %59 = load float, ptr %58, align 4, !tbaa !112
  %60 = getelementptr float, ptr %4, i64 %55
  %61 = load float, ptr %60, align 4, !tbaa !112
  %62 = getelementptr i64, ptr %5, i64 %55
  %63 = load i64, ptr %62, align 8, !tbaa !36
  %64 = fcmp olt float %59, %61
  br i1 %64, label %_ZN5faiss4CMinIflE4cmp2Effll.exit.thread.i, label %_ZN5faiss4CMinIflE4cmp2Effll.exit.i

_ZN5faiss4CMinIflE4cmp2Effll.exit.i:              ; preds = %57
  %65 = getelementptr inbounds nuw i64, ptr %13, i64 %55
  %66 = load i64, ptr %65, align 8, !tbaa !36
  %67 = fcmp oeq float %59, %61
  %68 = icmp slt i64 %66, %63
  %69 = and i1 %67, %68
  br i1 %69, label %_ZN5faiss4CMinIflE4cmp2Effll.exit.thread.i, label %77

_ZN5faiss4CMinIflE4cmp2Effll.exit.thread.i:       ; preds = %_ZN5faiss4CMinIflE4cmp2Effll.exit.i, %57, %.lr.ph._ZN5faiss4CMinIflE4cmp2Effll.exit.thread_crit_edge.i
  %70 = phi float [ %.pre.i, %.lr.ph._ZN5faiss4CMinIflE4cmp2Effll.exit.thread_crit_edge.i ], [ %59, %57 ], [ %59, %_ZN5faiss4CMinIflE4cmp2Effll.exit.i ]
  %71 = fcmp olt float %40, %70
  br i1 %71, label %_ZN5faiss16heap_replace_topINS_4CMinIflEEEEvmPNT_1TEPNS3_2TIES4_S6_.exit.loopexit, label %_ZN5faiss4CMinIflE4cmp2Effll.exit54.i

_ZN5faiss4CMinIflE4cmp2Effll.exit54.i:            ; preds = %_ZN5faiss4CMinIflE4cmp2Effll.exit.thread.i
  %72 = getelementptr inbounds nuw i64, ptr %13, i64 %55
  %73 = load i64, ptr %72, align 8, !tbaa !36
  %74 = fcmp oeq float %40, %70
  %75 = icmp slt i64 %53, %73
  %76 = and i1 %74, %75
  br i1 %76, label %_ZN5faiss16heap_replace_topINS_4CMinIflEEEEvmPNT_1TEPNS3_2TIES4_S6_.exit.loopexit, label %82

77:                                               ; preds = %_ZN5faiss4CMinIflE4cmp2Effll.exit.i
  %78 = fcmp olt float %40, %61
  br i1 %78, label %_ZN5faiss16heap_replace_topINS_4CMinIflEEEEvmPNT_1TEPNS3_2TIES4_S6_.exit.loopexit, label %_ZN5faiss4CMinIflE4cmp2Effll.exit55.i

_ZN5faiss4CMinIflE4cmp2Effll.exit55.i:            ; preds = %77
  %79 = fcmp oeq float %40, %61
  %80 = icmp slt i64 %53, %63
  %81 = and i1 %79, %80
  br i1 %81, label %_ZN5faiss16heap_replace_topINS_4CMinIflEEEEvmPNT_1TEPNS3_2TIES4_S6_.exit.loopexit, label %82

82:                                               ; preds = %_ZN5faiss4CMinIflE4cmp2Effll.exit55.i, %_ZN5faiss4CMinIflE4cmp2Effll.exit54.i
  %.sink63.i = phi float [ %70, %_ZN5faiss4CMinIflE4cmp2Effll.exit54.i ], [ %61, %_ZN5faiss4CMinIflE4cmp2Effll.exit55.i ]
  %.sink.i = phi i64 [ %73, %_ZN5faiss4CMinIflE4cmp2Effll.exit54.i ], [ %63, %_ZN5faiss4CMinIflE4cmp2Effll.exit55.i ]
  %.1.i = phi i64 [ %55, %_ZN5faiss4CMinIflE4cmp2Effll.exit54.i ], [ %54, %_ZN5faiss4CMinIflE4cmp2Effll.exit55.i ]
  %83 = getelementptr inbounds nuw float, ptr %12, i64 %.056.i
  store float %.sink63.i, ptr %83, align 4, !tbaa !112
  %84 = getelementptr inbounds nuw i64, ptr %13, i64 %.056.i
  store i64 %.sink.i, ptr %84, align 8, !tbaa !36
  %85 = shl i64 %.1.i, 1
  %86 = or disjoint i64 %85, 1
  %87 = icmp ugt i64 %85, %6
  br i1 %87, label %_ZN5faiss16heap_replace_topINS_4CMinIflEEEEvmPNT_1TEPNS3_2TIES4_S6_.exit.loopexit, label %.lr.ph.i, !llvm.loop !128

_ZN5faiss16heap_replace_topINS_4CMinIflEEEEvmPNT_1TEPNS3_2TIES4_S6_.exit.loopexit: ; preds = %82, %_ZN5faiss4CMinIflE4cmp2Effll.exit55.i, %77, %_ZN5faiss4CMinIflE4cmp2Effll.exit54.i, %_ZN5faiss4CMinIflE4cmp2Effll.exit.thread.i
  %.0.lcssa.i.ph = phi i64 [ %.1.i, %82 ], [ %.056.i, %_ZN5faiss4CMinIflE4cmp2Effll.exit54.i ], [ %.056.i, %_ZN5faiss4CMinIflE4cmp2Effll.exit55.i ], [ %.056.i, %_ZN5faiss4CMinIflE4cmp2Effll.exit.thread.i ], [ %.056.i, %77 ]
  %88 = getelementptr inbounds nuw float, ptr %12, i64 %.0.lcssa.i.ph
  store float %40, ptr %88, align 4, !tbaa !112
  %89 = getelementptr inbounds nuw i64, ptr %13, i64 %.0.lcssa.i.ph
  store i64 %53, ptr %89, align 8, !tbaa !36
  %90 = add i64 %.022, 1
  br label %91

91:                                               ; preds = %_ZN5faiss16heap_replace_topINS_4CMinIflEEEEvmPNT_1TEPNS3_2TIES4_S6_.exit.loopexit, %.lr.ph.split
  %.1 = phi i64 [ %90, %_ZN5faiss16heap_replace_topINS_4CMinIflEEEEvmPNT_1TEPNS3_2TIES4_S6_.exit.loopexit ], [ %.022, %.lr.ph.split ]
  %92 = add nuw i64 %.01920, 1
  %exitcond.not = icmp eq i64 %92, %1
  br i1 %exitcond.not, label %._crit_edge, label %.lr.ph.split, !llvm.loop !139
}